; ModuleID = '36/521.c'
source_filename = "36/521.c"
target datalayout = "e-m:e-p270:32:32-p271:32:32-p272:64:64-i64:64-f80:128-n8:16:32:64-S128"
target triple = "x86_64-pc-linux-gnu"

@.str = private unnamed_addr constant [5 x i8] c"%s%s\00", align 1
@.str.1 = private unnamed_addr constant [3 x i8] c"NO\00", align 1
@.str.2 = private unnamed_addr constant [4 x i8] c"YES\00", align 1

; Function Attrs: noinline nounwind uwtable
define dso_local i32 @main() #0 {
  %1 = alloca i32, align 4
  %2 = alloca i32, align 4
  %3 = alloca i32, align 4
  %4 = alloca i32, align 4
  %5 = alloca i32, align 4
  %6 = alloca i32, align 4
  %7 = alloca i32, align 4
  %8 = alloca [1000 x i32], align 16
  %9 = alloca [1000 x i32], align 16
  %10 = alloca [1000 x i8], align 16
  %11 = alloca [1000 x i8], align 16
  store i32 0, i32* %1, align 4
  %12 = getelementptr inbounds [1000 x i8], [1000 x i8]* %10, i64 0, i64 0
  %13 = getelementptr inbounds [1000 x i8], [1000 x i8]* %11, i64 0, i64 0
  %14 = call i32 (i8*, ...) @__isoc99_scanf(i8* getelementptr inbounds ([5 x i8], [5 x i8]* @.str, i64 0, i64 0), i8* %12, i8* %13)
  %15 = getelementptr inbounds [1000 x i8], [1000 x i8]* %10, i64 0, i64 0
  %16 = call i64 @strlen(i8* %15) #3
  %17 = trunc i64 %16 to i32
  store i32 %17, i32* %5, align 4
  %18 = getelementptr inbounds [1000 x i8], [1000 x i8]* %11, i64 0, i64 0
  %19 = call i64 @strlen(i8* %18) #3
  %20 = trunc i64 %19 to i32
  store i32 %20, i32* %6, align 4
  %21 = load i32, i32* %5, align 4
  %22 = load i32, i32* %6, align 4
  %23 = icmp eq i32 %21, %22
  br i1 %23, label %24, label %106

24:                                               ; preds = %0
  store i32 0, i32* %3, align 4
  br label %25

25:                                               ; preds = %36, %24
  %26 = load i32, i32* %3, align 4
  %27 = load i32, i32* %5, align 4
  %28 = icmp slt i32 %26, %27
  br i1 %28, label %29, label %39

29:                                               ; preds = %25
  %30 = load i32, i32* %3, align 4
  %31 = sext i32 %30 to i64
  %32 = getelementptr inbounds [1000 x i32], [1000 x i32]* %8, i64 0, i64 %31
  store i32 0, i32* %32, align 4
  %33 = load i32, i32* %3, align 4
  %34 = sext i32 %33 to i64
  %35 = getelementptr inbounds [1000 x i32], [1000 x i32]* %9, i64 0, i64 %34
  store i32 0, i32* %35, align 4
  br label %36

36:                                               ; preds = %29
  %37 = load i32, i32* %3, align 4
  %38 = add nsw i32 %37, 1
  store i32 %38, i32* %3, align 4
  br label %25

39:                                               ; preds = %25
  store i32 0, i32* %3, align 4
  br label %40

40:                                               ; preds = %79, %39
  %41 = load i32, i32* %3, align 4
  %42 = load i32, i32* %5, align 4
  %43 = icmp slt i32 %41, %42
  br i1 %43, label %44, label %82

44:                                               ; preds = %40
  store i32 0, i32* %4, align 4
  br label %45

45:                                               ; preds = %75, %44
  %46 = load i32, i32* %4, align 4
  %47 = load i32, i32* %5, align 4
  %48 = icmp slt i32 %46, %47
  br i1 %48, label %49, label %78

49:                                               ; preds = %45
  %50 = load i32, i32* %3, align 4
  %51 = sext i32 %50 to i64
  %52 = getelementptr inbounds [1000 x i8], [1000 x i8]* %10, i64 0, i64 %51
  %53 = load i8, i8* %52, align 1
  %54 = sext i8 %53 to i32
  %55 = load i32, i32* %4, align 4
  %56 = sext i32 %55 to i64
  %57 = getelementptr inbounds [1000 x i8], [1000 x i8]* %11, i64 0, i64 %56
  %58 = load i8, i8* %57, align 1
  %59 = sext i8 %58 to i32
  %60 = icmp eq i32 %54, %59
  br i1 %60, label %61, label %74

61:                                               ; preds = %49
  %62 = load i32, i32* %4, align 4
  %63 = sext i32 %62 to i64
  %64 = getelementptr inbounds [1000 x i32], [1000 x i32]* %9, i64 0, i64 %63
  %65 = load i32, i32* %64, align 4
  %66 = icmp eq i32 %65, 0
  br i1 %66, label %67, label %74

67:                                               ; preds = %61
  %68 = load i32, i32* %4, align 4
  %69 = sext i32 %68 to i64
  %70 = getelementptr inbounds [1000 x i32], [1000 x i32]* %9, i64 0, i64 %69
  store i32 1, i32* %70, align 4
  %71 = load i32, i32* %3, align 4
  %72 = sext i32 %71 to i64
  %73 = getelementptr inbounds [1000 x i32], [1000 x i32]* %8, i64 0, i64 %72
  store i32 1, i32* %73, align 4
  br label %78

74:                                               ; preds = %61, %49
  br label %75

75:                                               ; preds = %74
  %76 = load i32, i32* %4, align 4
  %77 = add nsw i32 %76, 1
  store i32 %77, i32* %4, align 4
  br label %45

78:                                               ; preds = %67, %45
  br label %79

79:                                               ; preds = %78
  %80 = load i32, i32* %3, align 4
  %81 = add nsw i32 %80, 1
  store i32 %81, i32* %3, align 4
  br label %40

82:                                               ; preds = %40
  store i32 0, i32* %7, align 4
  store i32 0, i32* %3, align 4
  br label %83

83:                                               ; preds = %95, %82
  %84 = load i32, i32* %3, align 4
  %85 = load i32, i32* %5, align 4
  %86 = icmp slt i32 %84, %85
  br i1 %86, label %87, label %98

87:                                               ; preds = %83
  %88 = load i32, i32* %3, align 4
  %89 = sext i32 %88 to i64
  %90 = getelementptr inbounds [1000 x i32], [1000 x i32]* %8, i64 0, i64 %89
  %91 = load i32, i32* %90, align 4
  %92 = icmp eq i32 %91, 0
  br i1 %92, label %93, label %94

93:                                               ; preds = %87
  store i32 1, i32* %7, align 4
  br label %98

94:                                               ; preds = %87
  br label %95

95:                                               ; preds = %94
  %96 = load i32, i32* %3, align 4
  %97 = add nsw i32 %96, 1
  store i32 %97, i32* %3, align 4
  br label %83

98:                                               ; preds = %93, %83
  %99 = load i32, i32* %7, align 4
  %100 = icmp eq i32 %99, 1
  br i1 %100, label %101, label %103

101:                                              ; preds = %98
  %102 = call i32 (i8*, ...) @printf(i8* getelementptr inbounds ([3 x i8], [3 x i8]* @.str.1, i64 0, i64 0))
  br label %105

103:                                              ; preds = %98
  %104 = call i32 (i8*, ...) @printf(i8* getelementptr inbounds ([4 x i8], [4 x i8]* @.str.2, i64 0, i64 0))
  br label %105

105:                                              ; preds = %103, %101
  br label %106

106:                                              ; preds = %105, %0
  %107 = load i32, i32* %5, align 4
  %108 = load i32, i32* %6, align 4
  %109 = icmp ne i32 %107, %108
  br i1 %109, label %110, label %112

110:                                              ; preds = %106
  %111 = call i32 (i8*, ...) @printf(i8* getelementptr inbounds ([3 x i8], [3 x i8]* @.str.1, i64 0, i64 0))
  br label %112

112:                                              ; preds = %110, %106
  %113 = load i32, i32* %1, align 4
  ret i32 %113
}

declare dso_local i32 @__isoc99_scanf(i8*, ...) #1

; Function Attrs: nounwind readonly
declare dso_local i64 @strlen(i8*) #2

declare dso_local i32 @printf(i8*, ...) #1


!llvm.module.flags = !{!0}
!llvm.ident = !{!1}

!0 = !{i32 1, !"wchar_size", i32 4}
!1 = !{!"clang version 10.0.0-4ubuntu1 "}
